; Function Attrs: nounwind sspstrong uwtable
define internal noundef i64 @ossl_x509store_set_time(i64 noundef %0, i64 noundef returned %1) #0 {
  %3 = tail call ptr @rb_check_typeddata(i64 noundef %0, ptr noundef nonnull @ossl_x509store_type) #5
  %.not = icmp eq ptr %3, null
  br i1 %.not, label %4, label %6

4:                                                ; preds = %2
  %5 = load i64, ptr @rb_eRuntimeError, align 8, !tbaa !20
  tail call void (i64, ptr, ...) @ossl_raise(i64 noundef %5, ptr noundef nonnull @.str.2) #7
  unreachable

6:                                                ; preds = %2
  %7 = tail call ptr @X509_STORE_get0_param(ptr noundef nonnull %3) #5
  %8 = tail call i64 @rb_Integer(i64 noundef %1) #5
  %9 = and i64 %8, 1
  %.not.i = icmp eq i64 %9, 0
  br i1 %.not.i, label %12, label %10

10:                                               ; preds = %6
  %11 = ashr i64 %8, 1
  br label %rb_num2long_inline.exit

12:                                               ; preds = %6
  %13 = tail call i64 @rb_num2long(i64 noundef %8) #5
  br label %rb_num2long_inline.exit

rb_num2long_inline.exit:                          ; preds = %10, %12
  %.0.i = phi i64 [ %11, %10 ], [ %13, %12 ]
  tail call void @X509_VERIFY_PARAM_set_time(ptr noundef %7, i64 noundef %.0.i) #5
  ret i64 %1
}